; Function Attrs: nounwind uwtable
define i64 @Gia_LutComputeTruth6(ptr noundef %0, i32 noundef %1, ptr noundef %2) local_unnamed_addr #2 {
  tail call void @Gia_ManIncrementTravId(ptr noundef %0) #23
  %4 = getelementptr i8, ptr %0, i64 264
  %.val17 = load ptr, ptr %4, align 8, !tbaa !47
  %5 = getelementptr i8, ptr %.val17, i64 8
  %.val17.val = load ptr, ptr %5, align 8, !tbaa !30
  %6 = sext i32 %1 to i64
  %7 = getelementptr inbounds i32, ptr %.val17.val, i64 %6
  %8 = load i32, ptr %7, align 4, !tbaa !31
  %9 = sext i32 %8 to i64
  %10 = getelementptr inbounds i32, ptr %.val17.val, i64 %9
  %11 = load i32, ptr %10, align 4, !tbaa !31
  %12 = icmp sgt i32 %11, 0
  br i1 %12, label %.lr.ph, label %.critedge

.lr.ph:                                           ; preds = %3
  %13 = getelementptr i8, ptr %2, i64 8
  %.val16 = load ptr, ptr %13, align 8, !tbaa !44
  %14 = getelementptr i8, ptr %0, i64 176
  %15 = getelementptr i8, ptr %0, i64 616
  %.val15 = load ptr, ptr %15, align 8, !tbaa !43
  %.val.pre = load i32, ptr %14, align 8, !tbaa !42
  %invariant.gep = getelementptr i8, ptr %.val17.val, i64 4
  br label %16

16:                                               ; preds = %.lr.ph, %16
  %indvars.iv = phi i64 [ 0, %.lr.ph ], [ %indvars.iv.next, %16 ]
  %17 = phi i64 [ %9, %.lr.ph ], [ %26, %16 ]
  %gep = getelementptr i32, ptr %invariant.gep, i64 %17
  %18 = getelementptr inbounds nuw i32, ptr %gep, i64 %indvars.iv
  %19 = load i32, ptr %18, align 4, !tbaa !31
  %20 = getelementptr inbounds nuw [6 x i64], ptr @s_Truth6, i64 0, i64 %indvars.iv
  %21 = load i64, ptr %20, align 8, !tbaa !28
  %22 = sext i32 %19 to i64
  %23 = getelementptr inbounds i64, ptr %.val16, i64 %22
  store i64 %21, ptr %23, align 8, !tbaa !28
  %24 = getelementptr inbounds i32, ptr %.val15, i64 %22
  store i32 %.val.pre, ptr %24, align 4, !tbaa !31
  %indvars.iv.next = add nuw nsw i64 %indvars.iv, 1
  %25 = load i32, ptr %7, align 4, !tbaa !31
  %26 = sext i32 %25 to i64
  %27 = getelementptr inbounds i32, ptr %.val17.val, i64 %26
  %28 = load i32, ptr %27, align 4, !tbaa !31
  %29 = sext i32 %28 to i64
  %30 = icmp slt i64 %indvars.iv.next, %29
  br i1 %30, label %16, label %.critedge, !llvm.loop !48

.critedge:                                        ; preds = %16, %3
  %31 = tail call i64 @Gia_LutComputeTruth6_rec(ptr noundef nonnull %0, i32 noundef %1, ptr noundef %2)
  ret i64 %31
}